target datalayout = "e-m:e-p270:32:32-p271:32:32-p272:64:64-i64:64-i128:128-f80:128-n8:16:32:64-S128"
target triple = "x86_64-pc-linux-gnu"

%struct.UConverterSelector = type { ptr, ptr, i32, ptr, i32, i32, ptr, i8, i8 }

; Function Attrs: inlinehint mustprogress nounwind uwtable
define internal noundef signext i8 @_ZL9U_FAILURE10UErrorCode(i32 noundef %0) #1 {
  %2 = alloca i32, align 4
  store i32 %0, ptr %2, align 4, !tbaa !16
  %3 = load i32, ptr %2, align 4, !tbaa !16
  %4 = icmp sgt i32 %3, 0
  %5 = zext i1 %4 to i8
  ret i8 %5
}

; Function Attrs: mustprogress uwtable
define internal void @_ZL20generateSelectorDataP18UConverterSelectorP13UPropsVectorsPK4USet20UConverterUnicodeSetP10UErrorCode(ptr noundef %0, ptr noundef %1, ptr noundef %2, i32 noundef %3, ptr noundef %4) #0 {
  %6 = alloca ptr, align 8
  %7 = alloca ptr, align 8
  %8 = alloca ptr, align 8
  %9 = alloca i32, align 4
  %10 = alloca ptr, align 8
  %11 = alloca i32, align 4
  %12 = alloca i32, align 4
  %13 = alloca i32, align 4
  %14 = alloca i32, align 4
  %15 = alloca i32, align 4
  %16 = alloca i32, align 4
  %17 = alloca i32, align 4
  %18 = alloca i32, align 4
  %19 = alloca ptr, align 8
  %20 = alloca ptr, align 8
  %21 = alloca i32, align 4
  %22 = alloca i32, align 4
  %23 = alloca i32, align 4
  %24 = alloca i32, align 4
  %25 = alloca i32, align 4
  %26 = alloca i32, align 4
  %27 = alloca i32, align 4
  %28 = alloca i32, align 4
  store ptr %0, ptr %6, align 8, !tbaa !36
  store ptr %1, ptr %7, align 8, !tbaa !32
  store ptr %2, ptr %8, align 8, !tbaa !11
  store i32 %3, ptr %9, align 4, !tbaa !13
  store ptr %4, ptr %10, align 8, !tbaa !15
  %29 = load ptr, ptr %10, align 8, !tbaa !15
  %30 = load i32, ptr %29, align 4, !tbaa !16
  %31 = call noundef signext i8 @_ZL9U_FAILURE10UErrorCode(i32 noundef %30)
  %32 = icmp ne i8 %31, 0
  br i1 %32, label %33, label %34

33:                                               ; preds = %5
  br label %193

34:                                               ; preds = %5
  call void @llvm.lifetime.start.p0(i64 4, ptr %11) #11
  %35 = load ptr, ptr %6, align 8, !tbaa !36
  %36 = getelementptr inbounds nuw %struct.UConverterSelector, ptr %35, i32 0, i32 4
  %37 = load i32, ptr %36, align 8, !tbaa !31
  %38 = add nsw i32 %37, 31
  %39 = sdiv i32 %38, 32
  store i32 %39, ptr %11, align 4, !tbaa !9
  call void @llvm.lifetime.start.p0(i64 4, ptr %12) #11
  store i32 0, ptr %12, align 4, !tbaa !9
  br label %40

40:                                               ; preds = %49, %34
  %41 = load i32, ptr %12, align 4, !tbaa !9
  %42 = load i32, ptr %11, align 4, !tbaa !9
  %43 = icmp slt i32 %41, %42
  br i1 %43, label %45, label %44

44:                                               ; preds = %40
  call void @llvm.lifetime.end.p0(i64 4, ptr %12) #11
  br label %52

45:                                               ; preds = %40
  %46 = load ptr, ptr %7, align 8, !tbaa !32
  %47 = load i32, ptr %12, align 4, !tbaa !9
  %48 = load ptr, ptr %10, align 8, !tbaa !15
  call void @upvec_setValue_77(ptr noundef %46, i32 noundef 1114113, i32 noundef 1114113, i32 noundef %47, i32 noundef -1, i32 noundef -1, ptr noundef %48)
  br label %49

49:                                               ; preds = %45
  %50 = load i32, ptr %12, align 4, !tbaa !9
  %51 = add nsw i32 %50, 1
  store i32 %51, ptr %12, align 4, !tbaa !9
  br label %40, !llvm.loop !42

52:                                               ; preds = %44
  call void @llvm.lifetime.start.p0(i64 4, ptr %13) #11
  store i32 0, ptr %13, align 4, !tbaa !9
  br label %53

53:                                               ; preds = %131, %52
  %54 = load i32, ptr %13, align 4, !tbaa !9
  %55 = load ptr, ptr %6, align 8, !tbaa !36
  %56 = getelementptr inbounds nuw %struct.UConverterSelector, ptr %55, i32 0, i32 4
  %57 = load i32, ptr %56, align 8, !tbaa !31
  %58 = icmp slt i32 %54, %57
  br i1 %58, label %60, label %59

59:                                               ; preds = %53
  store i32 5, ptr %14, align 4
  br label %134

60:                                               ; preds = %53
  call void @llvm.lifetime.start.p0(i64 4, ptr %15) #11
  call void @llvm.lifetime.start.p0(i64 4, ptr %16) #11
  call void @llvm.lifetime.start.p0(i64 4, ptr %17) #11
  call void @llvm.lifetime.start.p0(i64 4, ptr %18) #11
  call void @llvm.lifetime.start.p0(i64 8, ptr %19) #11
  %61 = load ptr, ptr %6, align 8, !tbaa !36
  %62 = getelementptr inbounds nuw %struct.UConverterSelector, ptr %61, i32 0, i32 3
  %63 = load ptr, ptr %62, align 8, !tbaa !18
  %64 = load i32, ptr %13, align 4, !tbaa !9
  %65 = sext i32 %64 to i64
  %66 = getelementptr inbounds ptr, ptr %63, i64 %65
  %67 = load ptr, ptr %66, align 8, !tbaa !23
  %68 = load ptr, ptr %10, align 8, !tbaa !15
  %69 = call ptr @ucnv_open_77(ptr noundef %67, ptr noundef %68)
  store ptr %69, ptr %19, align 8, !tbaa !43
  %70 = load ptr, ptr %10, align 8, !tbaa !15
  %71 = load i32, ptr %70, align 4, !tbaa !16
  %72 = call noundef signext i8 @_ZL9U_FAILURE10UErrorCode(i32 noundef %71)
  %73 = icmp ne i8 %72, 0
  br i1 %73, label %74, label %75

74:                                               ; preds = %60
  store i32 1, ptr %14, align 4
  br label %128

75:                                               ; preds = %60
  call void @llvm.lifetime.start.p0(i64 8, ptr %20) #11
  %76 = call ptr @uset_open_77(i32 noundef 1, i32 noundef 0)
  store ptr %76, ptr %20, align 8, !tbaa !11
  %77 = load ptr, ptr %19, align 8, !tbaa !43
  %78 = load ptr, ptr %20, align 8, !tbaa !11
  %79 = load i32, ptr %9, align 4, !tbaa !13
  %80 = load ptr, ptr %10, align 8, !tbaa !15
  call void @ucnv_getUnicodeSet_77(ptr noundef %77, ptr noundef %78, i32 noundef %79, ptr noundef %80)
  %81 = load ptr, ptr %10, align 8, !tbaa !15
  %82 = load i32, ptr %81, align 4, !tbaa !16
  %83 = call noundef signext i8 @_ZL9U_FAILURE10UErrorCode(i32 noundef %82)
  %84 = icmp ne i8 %83, 0
  br i1 %84, label %85, label %87

85:                                               ; preds = %75
  %86 = load ptr, ptr %19, align 8, !tbaa !43
  call void @ucnv_close_77(ptr noundef %86)
  store i32 1, ptr %14, align 4
  br label %127

87:                                               ; preds = %75
  %88 = load i32, ptr %13, align 4, !tbaa !9
  %89 = sdiv i32 %88, 32
  store i32 %89, ptr %16, align 4, !tbaa !9
  %90 = load i32, ptr %13, align 4, !tbaa !9
  %91 = srem i32 %90, 32
  %92 = shl i32 1, %91
  store i32 %92, ptr %15, align 4, !tbaa !9
  %93 = load ptr, ptr %20, align 8, !tbaa !11
  %94 = call i32 @uset_getItemCount_77(ptr noundef %93)
  store i32 %94, ptr %17, align 4, !tbaa !9
  store i32 0, ptr %18, align 4, !tbaa !9
  br label %95

95:                                               ; preds = %115, %87
  %96 = load i32, ptr %18, align 4, !tbaa !9
  %97 = load i32, ptr %17, align 4, !tbaa !9
  %98 = icmp slt i32 %96, %97
  br i1 %98, label %99, label %118

99:                                               ; preds = %95
  call void @llvm.lifetime.start.p0(i64 4, ptr %21) #11
  call void @llvm.lifetime.start.p0(i64 4, ptr %22) #11
  call void @llvm.lifetime.start.p0(i64 4, ptr %23) #11
  store i32 0, ptr %23, align 4, !tbaa !16
  %100 = load ptr, ptr %20, align 8, !tbaa !11
  %101 = load i32, ptr %18, align 4, !tbaa !9
  %102 = call i32 @uset_getItem_77(ptr noundef %100, i32 noundef %101, ptr noundef %21, ptr noundef %22, ptr noundef null, i32 noundef 0, ptr noundef %23)
  %103 = load i32, ptr %23, align 4, !tbaa !16
  %104 = call noundef signext i8 @_ZL9U_FAILURE10UErrorCode(i32 noundef %103)
  %105 = icmp ne i8 %104, 0
  br i1 %105, label %106, label %107

106:                                              ; preds = %99
  br label %114

107:                                              ; preds = %99
  %108 = load ptr, ptr %7, align 8, !tbaa !32
  %109 = load i32, ptr %21, align 4, !tbaa !9
  %110 = load i32, ptr %22, align 4, !tbaa !9
  %111 = load i32, ptr %16, align 4, !tbaa !9
  %112 = load i32, ptr %15, align 4, !tbaa !9
  %113 = load ptr, ptr %10, align 8, !tbaa !15
  call void @upvec_setValue_77(ptr noundef %108, i32 noundef %109, i32 noundef %110, i32 noundef %111, i32 noundef -1, i32 noundef %112, ptr noundef %113)
  br label %114

114:                                              ; preds = %107, %106
  call void @llvm.lifetime.end.p0(i64 4, ptr %23) #11
  call void @llvm.lifetime.end.p0(i64 4, ptr %22) #11
  call void @llvm.lifetime.end.p0(i64 4, ptr %21) #11
  br label %115

115:                                              ; preds = %114
  %116 = load i32, ptr %18, align 4, !tbaa !9
  %117 = add nsw i32 %116, 1
  store i32 %117, ptr %18, align 4, !tbaa !9
  br label %95, !llvm.loop !45

118:                                              ; preds = %95
  %119 = load ptr, ptr %19, align 8, !tbaa !43
  call void @ucnv_close_77(ptr noundef %119)
  %120 = load ptr, ptr %20, align 8, !tbaa !11
  call void @uset_close_77(ptr noundef %120)
  %121 = load ptr, ptr %10, align 8, !tbaa !15
  %122 = load i32, ptr %121, align 4, !tbaa !16
  %123 = call noundef signext i8 @_ZL9U_FAILURE10UErrorCode(i32 noundef %122)
  %124 = icmp ne i8 %123, 0
  br i1 %124, label %125, label %126

125:                                              ; preds = %118
  store i32 1, ptr %14, align 4
  br label %127

126:                                              ; preds = %118
  store i32 0, ptr %14, align 4
  br label %127

127:                                              ; preds = %126, %125, %85
  call void @llvm.lifetime.end.p0(i64 8, ptr %20) #11
  br label %128

128:                                              ; preds = %127, %74
  call void @llvm.lifetime.end.p0(i64 8, ptr %19) #11
  call void @llvm.lifetime.end.p0(i64 4, ptr %18) #11
  call void @llvm.lifetime.end.p0(i64 4, ptr %17) #11
  call void @llvm.lifetime.end.p0(i64 4, ptr %16) #11
  call void @llvm.lifetime.end.p0(i64 4, ptr %15) #11
  %129 = load i32, ptr %14, align 4
  switch i32 %129, label %134 [
    i32 0, label %130
  ]

130:                                              ; preds = %128
  br label %131

131:                                              ; preds = %130
  %132 = load i32, ptr %13, align 4, !tbaa !9
  %133 = add nsw i32 %132, 1
  store i32 %133, ptr %13, align 4, !tbaa !9
  br label %53, !llvm.loop !46

134:                                              ; preds = %128, %59
  call void @llvm.lifetime.end.p0(i64 4, ptr %13) #11
  %135 = load i32, ptr %14, align 4
  switch i32 %135, label %191 [
    i32 5, label %136
  ]

136:                                              ; preds = %134
  %137 = load ptr, ptr %8, align 8, !tbaa !11
  %138 = icmp ne ptr %137, null
  br i1 %138, label %139, label %171

139:                                              ; preds = %136
  call void @llvm.lifetime.start.p0(i64 4, ptr %24) #11
  %140 = load ptr, ptr %8, align 8, !tbaa !11
  %141 = call i32 @uset_getItemCount_77(ptr noundef %140)
  store i32 %141, ptr %24, align 4, !tbaa !9
  call void @llvm.lifetime.start.p0(i64 4, ptr %25) #11
  store i32 0, ptr %25, align 4, !tbaa !9
  br label %142

142:                                              ; preds = %167, %139
  %143 = load i32, ptr %25, align 4, !tbaa !9
  %144 = load i32, ptr %24, align 4, !tbaa !9
  %145 = icmp slt i32 %143, %144
  br i1 %145, label %147, label %146

146:                                              ; preds = %142
  store i32 11, ptr %14, align 4
  call void @llvm.lifetime.end.p0(i64 4, ptr %25) #11
  br label %170

147:                                              ; preds = %142
  call void @llvm.lifetime.start.p0(i64 4, ptr %26) #11
  call void @llvm.lifetime.start.p0(i64 4, ptr %27) #11
  %148 = load ptr, ptr %8, align 8, !tbaa !11
  %149 = load i32, ptr %25, align 4, !tbaa !9
  %150 = load ptr, ptr %10, align 8, !tbaa !15
  %151 = call i32 @uset_getItem_77(ptr noundef %148, i32 noundef %149, ptr noundef %26, ptr noundef %27, ptr noundef null, i32 noundef 0, ptr noundef %150)
  call void @llvm.lifetime.start.p0(i64 4, ptr %28) #11
  store i32 0, ptr %28, align 4, !tbaa !9
  br label %152

152:                                              ; preds = %163, %147
  %153 = load i32, ptr %28, align 4, !tbaa !9
  %154 = load i32, ptr %11, align 4, !tbaa !9
  %155 = icmp slt i32 %153, %154
  br i1 %155, label %157, label %156

156:                                              ; preds = %152
  store i32 14, ptr %14, align 4
  call void @llvm.lifetime.end.p0(i64 4, ptr %28) #11
  br label %166

157:                                              ; preds = %152
  %158 = load ptr, ptr %7, align 8, !tbaa !32
  %159 = load i32, ptr %26, align 4, !tbaa !9
  %160 = load i32, ptr %27, align 4, !tbaa !9
  %161 = load i32, ptr %28, align 4, !tbaa !9
  %162 = load ptr, ptr %10, align 8, !tbaa !15
  call void @upvec_setValue_77(ptr noundef %158, i32 noundef %159, i32 noundef %160, i32 noundef %161, i32 noundef -1, i32 noundef -1, ptr noundef %162)
  br label %163

163:                                              ; preds = %157
  %164 = load i32, ptr %28, align 4, !tbaa !9
  %165 = add nsw i32 %164, 1
  store i32 %165, ptr %28, align 4, !tbaa !9
  br label %152, !llvm.loop !47

166:                                              ; preds = %156
  call void @llvm.lifetime.end.p0(i64 4, ptr %27) #11
  call void @llvm.lifetime.end.p0(i64 4, ptr %26) #11
  br label %167

167:                                              ; preds = %166
  %168 = load i32, ptr %25, align 4, !tbaa !9
  %169 = add nsw i32 %168, 1
  store i32 %169, ptr %25, align 4, !tbaa !9
  br label %142, !llvm.loop !48

170:                                              ; preds = %146
  call void @llvm.lifetime.end.p0(i64 4, ptr %24) #11
  br label %171

171:                                              ; preds = %170, %136
  %172 = load ptr, ptr %7, align 8, !tbaa !32
  %173 = load ptr, ptr %10, align 8, !tbaa !15
  %174 = call ptr @upvec_compactToUTrie2WithRowIndexes_77(ptr noundef %172, ptr noundef %173)
  %175 = load ptr, ptr %6, align 8, !tbaa !36
  %176 = getelementptr inbounds nuw %struct.UConverterSelector, ptr %175, i32 0, i32 0
  store ptr %174, ptr %176, align 8, !tbaa !49
  %177 = load ptr, ptr %7, align 8, !tbaa !32
  %178 = load ptr, ptr %6, align 8, !tbaa !36
  %179 = getelementptr inbounds nuw %struct.UConverterSelector, ptr %178, i32 0, i32 2
  %180 = load ptr, ptr %10, align 8, !tbaa !15
  %181 = call ptr @upvec_cloneArray_77(ptr noundef %177, ptr noundef %179, ptr noundef null, ptr noundef %180)
  %182 = load ptr, ptr %6, align 8, !tbaa !36
  %183 = getelementptr inbounds nuw %struct.UConverterSelector, ptr %182, i32 0, i32 1
  store ptr %181, ptr %183, align 8, !tbaa !50
  %184 = load i32, ptr %11, align 4, !tbaa !9
  %185 = load ptr, ptr %6, align 8, !tbaa !36
  %186 = getelementptr inbounds nuw %struct.UConverterSelector, ptr %185, i32 0, i32 2
  %187 = load i32, ptr %186, align 8, !tbaa !51
  %188 = mul nsw i32 %187, %184
  store i32 %188, ptr %186, align 8, !tbaa !51
  %189 = load ptr, ptr %6, align 8, !tbaa !36
  %190 = getelementptr inbounds nuw %struct.UConverterSelector, ptr %189, i32 0, i32 7
  store i8 1, ptr %190, align 8, !tbaa !52
  store i32 0, ptr %14, align 4
  br label %191

191:                                              ; preds = %171, %134
  call void @llvm.lifetime.end.p0(i64 4, ptr %11) #11
  %192 = load i32, ptr %14, align 4
  switch i32 %192, label %194 [
    i32 0, label %193
    i32 1, label %193
  ]

193:                                              ; preds = %33, %191, %191
  ret void

194:                                              ; preds = %191
  unreachable
}