; Function Attrs: mustprogress uwtable
define internal fastcc void @_ZL20generateSelectorDataP18UConverterSelectorP13UPropsVectorsPK4USet20UConverterUnicodeSetP10UErrorCode(ptr noundef %0, ptr noundef %1, ptr noundef %2, i32 noundef %3, ptr noundef %4) unnamed_addr #0 {
  %6 = alloca i32, align 4
  %7 = alloca i32, align 4
  %8 = alloca i32, align 4
  %9 = alloca i32, align 4
  %10 = alloca i32, align 4
  %11 = load i32, ptr %4, align 4, !tbaa !3
  %12 = icmp slt i32 %11, 1
  br i1 %12, label %13, label %.critedge

13:                                               ; preds = %5
  %14 = getelementptr inbounds nuw i8, ptr %0, i64 32
  %15 = load i32, ptr %14, align 8, !tbaa !26
  %.fr90 = freeze i32 %15
  %16 = add nsw i32 %.fr90, 31
  %17 = sdiv i32 %16, 32
  %18 = icmp sgt i32 %.fr90, 0
  br i1 %18, label %.lr.ph.preheader, label %.critedge75

.lr.ph.preheader:                                 ; preds = %13
  %smax = tail call i32 @llvm.smax.i32(i32 %17, i32 1)
  br label %.lr.ph

.preheader:                                       ; preds = %.lr.ph
  %.pre = load i32, ptr %14, align 8, !tbaa !26
  %19 = icmp sgt i32 %.pre, 0
  br i1 %19, label %.lr.ph82, label %.critedge75

.lr.ph82:                                         ; preds = %.preheader
  %20 = getelementptr inbounds nuw i8, ptr %0, i64 24
  br label %25

.lr.ph:                                           ; preds = %.lr.ph.preheader, %.lr.ph
  %.06377 = phi i32 [ %21, %.lr.ph ], [ 0, %.lr.ph.preheader ]
  tail call void @upvec_setValue_77(ptr noundef %1, i32 noundef 1114113, i32 noundef 1114113, i32 noundef %.06377, i32 noundef -1, i32 noundef -1, ptr noundef nonnull %4)
  %21 = add nuw nsw i32 %.06377, 1
  %exitcond.not = icmp eq i32 %21, %smax
  br i1 %exitcond.not, label %.preheader, label %.lr.ph, !llvm.loop !27

22:                                               ; preds = %._crit_edge
  %indvars.iv.next = add nuw nsw i64 %indvars.iv, 1
  %23 = load i32, ptr %14, align 8, !tbaa !26
  %24 = sext i32 %23 to i64
  %.not73 = icmp slt i64 %indvars.iv.next, %24
  br i1 %.not73, label %25, label %.critedge75, !llvm.loop !28

25:                                               ; preds = %.lr.ph82, %22
  %indvars.iv = phi i64 [ 0, %.lr.ph82 ], [ %indvars.iv.next, %22 ]
  %26 = load ptr, ptr %20, align 8, !tbaa !11
  %27 = getelementptr inbounds nuw ptr, ptr %26, i64 %indvars.iv
  %28 = load ptr, ptr %27, align 8, !tbaa !19
  %29 = call ptr @ucnv_open_77(ptr noundef %28, ptr noundef nonnull %4)
  %30 = load i32, ptr %4, align 4, !tbaa !3
  %31 = icmp slt i32 %30, 1
  br i1 %31, label %32, label %.critedge

32:                                               ; preds = %25
  %33 = call ptr @uset_open_77(i32 noundef 1, i32 noundef 0)
  call void @ucnv_getUnicodeSet_77(ptr noundef %29, ptr noundef %33, i32 noundef %3, ptr noundef nonnull %4)
  %34 = load i32, ptr %4, align 4, !tbaa !3
  %35 = icmp slt i32 %34, 1
  br i1 %35, label %37, label %36

36:                                               ; preds = %32
  call void @ucnv_close_77(ptr noundef %29)
  br label %.critedge

37:                                               ; preds = %32
  %38 = trunc nuw nsw i64 %indvars.iv to i32
  %39 = lshr i32 %38, 5
  %40 = and i32 %38, 31
  %41 = shl nuw i32 1, %40
  %42 = call i32 @uset_getItemCount_77(ptr noundef %33)
  %43 = icmp sgt i32 %42, 0
  br i1 %43, label %.lr.ph79, label %._crit_edge

.lr.ph79:                                         ; preds = %37, %50
  %.06678 = phi i32 [ %51, %50 ], [ 0, %37 ]
  call void @llvm.lifetime.start.p0(i64 4, ptr nonnull %6) #15
  call void @llvm.lifetime.start.p0(i64 4, ptr nonnull %7) #15
  call void @llvm.lifetime.start.p0(i64 4, ptr nonnull %8) #15
  store i32 0, ptr %8, align 4, !tbaa !3
  %44 = call i32 @uset_getItem_77(ptr noundef %33, i32 noundef %.06678, ptr noundef nonnull %6, ptr noundef nonnull %7, ptr noundef null, i32 noundef 0, ptr noundef nonnull %8)
  %45 = load i32, ptr %8, align 4, !tbaa !3
  %46 = icmp slt i32 %45, 1
  br i1 %46, label %47, label %50

47:                                               ; preds = %.lr.ph79
  %48 = load i32, ptr %6, align 4, !tbaa !29
  %49 = load i32, ptr %7, align 4, !tbaa !29
  call void @upvec_setValue_77(ptr noundef %1, i32 noundef %48, i32 noundef %49, i32 noundef %39, i32 noundef -1, i32 noundef %41, ptr noundef nonnull %4)
  br label %50

50:                                               ; preds = %.lr.ph79, %47
  call void @llvm.lifetime.end.p0(i64 4, ptr nonnull %8) #15
  call void @llvm.lifetime.end.p0(i64 4, ptr nonnull %7) #15
  call void @llvm.lifetime.end.p0(i64 4, ptr nonnull %6) #15
  %51 = add nuw nsw i32 %.06678, 1
  %exitcond94.not = icmp eq i32 %51, %42
  br i1 %exitcond94.not, label %._crit_edge, label %.lr.ph79, !llvm.loop !30

._crit_edge:                                      ; preds = %50, %37
  call void @ucnv_close_77(ptr noundef %29)
  call void @uset_close_77(ptr noundef %33)
  %52 = load i32, ptr %4, align 4, !tbaa !3
  %53 = icmp slt i32 %52, 1
  br i1 %53, label %22, label %.critedge

.critedge75:                                      ; preds = %22, %13, %.preheader
  %.not74 = icmp eq ptr %2, null
  br i1 %.not74, label %.loopexit, label %54

54:                                               ; preds = %.critedge75
  %55 = call i32 @uset_getItemCount_77(ptr noundef nonnull %2)
  %56 = icmp sgt i32 %55, 0
  br i1 %56, label %.lr.ph89, label %.loopexit

.lr.ph89:                                         ; preds = %54
  br i1 %18, label %.lr.ph85.us.preheader, label %.lr.ph89.split

.lr.ph85.us.preheader:                            ; preds = %.lr.ph89
  %smax97 = call i32 @llvm.smax.i32(i32 %17, i32 1)
  br label %.lr.ph85.us

.lr.ph85.us:                                      ; preds = %.lr.ph85.us.preheader, %._crit_edge86.us
  %.06287.us = phi i32 [ %62, %._crit_edge86.us ], [ 0, %.lr.ph85.us.preheader ]
  call void @llvm.lifetime.start.p0(i64 4, ptr nonnull %9) #15
  call void @llvm.lifetime.start.p0(i64 4, ptr nonnull %10) #15
  %57 = call i32 @uset_getItem_77(ptr noundef nonnull %2, i32 noundef %.06287.us, ptr noundef nonnull %9, ptr noundef nonnull %10, ptr noundef null, i32 noundef 0, ptr noundef nonnull %4)
  br label %58

58:                                               ; preds = %.lr.ph85.us, %58
  %.083.us = phi i32 [ 0, %.lr.ph85.us ], [ %61, %58 ]
  %59 = load i32, ptr %9, align 4, !tbaa !29
  %60 = load i32, ptr %10, align 4, !tbaa !29
  call void @upvec_setValue_77(ptr noundef %1, i32 noundef %59, i32 noundef %60, i32 noundef %.083.us, i32 noundef -1, i32 noundef -1, ptr noundef nonnull %4)
  %61 = add nuw nsw i32 %.083.us, 1
  %exitcond98.not = icmp eq i32 %61, %smax97
  br i1 %exitcond98.not, label %._crit_edge86.us, label %58, !llvm.loop !31

._crit_edge86.us:                                 ; preds = %58
  call void @llvm.lifetime.end.p0(i64 4, ptr nonnull %10) #15
  call void @llvm.lifetime.end.p0(i64 4, ptr nonnull %9) #15
  %62 = add nuw nsw i32 %.06287.us, 1
  %exitcond99.not = icmp eq i32 %62, %55
  br i1 %exitcond99.not, label %.loopexit, label %.lr.ph85.us, !llvm.loop !32

.lr.ph89.split:                                   ; preds = %.lr.ph89, %.lr.ph89.split
  %.06287 = phi i32 [ %64, %.lr.ph89.split ], [ 0, %.lr.ph89 ]
  call void @llvm.lifetime.start.p0(i64 4, ptr nonnull %9) #15
  call void @llvm.lifetime.start.p0(i64 4, ptr nonnull %10) #15
  %63 = call i32 @uset_getItem_77(ptr noundef nonnull %2, i32 noundef %.06287, ptr noundef nonnull %9, ptr noundef nonnull %10, ptr noundef null, i32 noundef 0, ptr noundef nonnull %4)
  call void @llvm.lifetime.end.p0(i64 4, ptr nonnull %10) #15
  call void @llvm.lifetime.end.p0(i64 4, ptr nonnull %9) #15
  %64 = add nuw nsw i32 %.06287, 1
  %exitcond96.not = icmp eq i32 %64, %55
  br i1 %exitcond96.not, label %.loopexit, label %.lr.ph89.split, !llvm.loop !32

.loopexit:                                        ; preds = %.lr.ph89.split, %._crit_edge86.us, %54, %.critedge75
  %65 = call ptr @upvec_compactToUTrie2WithRowIndexes_77(ptr noundef %1, ptr noundef nonnull %4)
  store ptr %65, ptr %0, align 8, !tbaa !33
  %66 = getelementptr inbounds nuw i8, ptr %0, i64 16
  %67 = call ptr @upvec_cloneArray_77(ptr noundef %1, ptr noundef nonnull %66, ptr noundef null, ptr noundef nonnull %4)
  %68 = getelementptr inbounds nuw i8, ptr %0, i64 8
  store ptr %67, ptr %68, align 8, !tbaa !34
  %69 = load i32, ptr %66, align 8, !tbaa !35
  %70 = mul nsw i32 %69, %17
  store i32 %70, ptr %66, align 8, !tbaa !35
  %71 = getelementptr inbounds nuw i8, ptr %0, i64 48
  store i8 1, ptr %71, align 8, !tbaa !36
  br label %.critedge

.critedge:                                        ; preds = %._crit_edge, %25, %36, %.loopexit, %5
  ret void
}